; Function Attrs: null_pointer_is_valid sspstrong uwtable
define internal i32 @budb_dissect_GetText_response(ptr noundef %0, i32 noundef %1, ptr noundef %2, ptr noundef %3, ptr noundef %4, ptr noundef %5) #0 {
  %7 = tail call i32 @dissect_ndr_toplevel_pointer(ptr noundef %0, i32 noundef %1, ptr noundef %2, ptr noundef %3, ptr noundef %4, ptr noundef %5, ptr noundef nonnull @budb_dissect_GetText_nextOffset, i32 noundef 1, ptr noundef nonnull @.str.251, i32 noundef -1)
  %8 = tail call i32 @dissect_deferred_pointers(ptr noundef %2, ptr noundef %0, i32 noundef %7, ptr noundef %4, ptr noundef %5)
  %9 = tail call i32 @dissect_ndr_toplevel_pointer(ptr noundef %0, i32 noundef %8, ptr noundef %2, ptr noundef %3, ptr noundef %4, ptr noundef %5, ptr noundef nonnull @budb_dissect_GetText_charListPtr, i32 noundef 1, ptr noundef nonnull @.str.253, i32 noundef -1)
  %10 = tail call i32 @dissect_deferred_pointers(ptr noundef %2, ptr noundef %0, i32 noundef %9, ptr noundef %4, ptr noundef %5)
  %11 = load i32, ptr @hf_budb_rc, align 4
  %12 = tail call i32 @dissect_ntstatus(ptr noundef %0, i32 noundef %10, ptr noundef %2, ptr noundef %3, ptr noundef %4, ptr noundef %5, i32 noundef %11, ptr noundef null)
  ret i32 %12
}